target datalayout = "e-m:e-p270:32:32-p271:32:32-p272:64:64-i64:64-i128:128-f80:128-n8:16:32:64-S128"
target triple = "x86_64-pc-linux-gnu"

%struct._value_string_ext = type { ptr, i32, i32, ptr, ptr }
%struct.expert_field = type { i32, i32 }
%struct._c_pkt_data = type { ptr, ptr, ptr, ptr, ptr, ptr, %struct._c_header }
%struct._c_header = type { i64, i64, i32, i16, i16, %struct._c_node_name }
%struct._c_node_name = type { ptr, ptr, i64, i32 }
%struct._c_osd_op = type { i32, ptr, i32 }

@hf_osd_flags = internal global i32 0, align 4
@hf_osd_op_type = internal global i32 0, align 4
@c_osd_optype_strings_ext = internal global %struct._value_string_ext { ptr @_try_val_to_str_ext_init, i32 0, i32 88, ptr @c_osd_optype_strings, ptr @.str.1243 }, align 8
@hf_osd_op_data = internal global i32 0, align 4
@hf_osd_op_extent_off = internal global i32 0, align 4
@hf_osd_op_extent_size = internal global i32 0, align 4
@hf_osd_op_extent_trunc_size = internal global i32 0, align 4
@hf_osd_op_extent_trunc_seq = internal global i32 0, align 4
@hf_osd_op_payload_size = internal global i32 0, align 4
@ett_osd_op = internal global i32 0, align 4
@ei_union_unknown = internal global %struct.expert_field zeroinitializer, align 4
@.str.1616 = private unnamed_addr constant [16 x i8] c"Unknown (0x04X)\00", align 1
@.str.1662 = private unnamed_addr constant [11 x i8] c", Type: %s\00", align 1
@.str.1672 = private unnamed_addr constant [25 x i8] c", Offset: %lu, Size: %lu\00", align 1
@.str.1673 = private unnamed_addr constant [19 x i8] c", Truncate To: %lu\00", align 1
@.str.1674 = private unnamed_addr constant [18 x i8] c", Data Length: %d\00", align 1

; Function Attrs: null_pointer_is_valid sspstrong uwtable
define internal i32 @c_dissect_osd_flags(ptr noundef %0, ptr noundef %1, i32 noundef %2, ptr noundef %3) #0 {
  %5 = alloca ptr, align 8
  %6 = alloca ptr, align 8
  %7 = alloca i32, align 4
  %8 = alloca ptr, align 8
  store ptr %0, ptr %5, align 8
  store ptr %1, ptr %6, align 8
  store i32 %2, ptr %7, align 4
  store ptr %3, ptr %8, align 8
  %9 = load ptr, ptr %5, align 8
  %10 = load ptr, ptr %6, align 8
  %11 = load i32, ptr %7, align 4
  %12 = load i32, ptr @hf_osd_flags, align 4
  %13 = load i32, ptr @hf_osd_flags, align 4
  %14 = call ptr @proto_tree_add_bitmask(ptr noundef %9, ptr noundef %10, i32 noundef %11, i32 noundef %12, i32 noundef %13, ptr noundef @c_dissect_osd_flags.flags, i32 noundef -2147483648)
  %15 = load i32, ptr %7, align 4
  %16 = add i32 %15, 4
  ret i32 %16
}

; Function Attrs: null_pointer_is_valid sspstrong uwtable
define internal ptr @c_osd_optype_string(i32 noundef %0) #0 {
  %2 = alloca i32, align 4
  store i32 %0, ptr %2, align 4
  %3 = load i32, ptr %2, align 4
  %4 = call ptr @val_to_str_ext(i32 noundef %3, ptr noundef @c_osd_optype_strings_ext, ptr noundef @.str.1616)
  ret ptr %4
}

; Function Attrs: null_pointer_is_valid sspstrong uwtable
define internal i32 @c_dissect_osd_op(ptr noundef %0, i32 noundef %1, ptr noundef %2, ptr noundef %3, i32 noundef %4, ptr noundef %5) #0 {
  %7 = alloca ptr, align 8
  %8 = alloca i32, align 4
  %9 = alloca ptr, align 8
  %10 = alloca ptr, align 8
  %11 = alloca i32, align 4
  %12 = alloca ptr, align 8
  %13 = alloca ptr, align 8
  %14 = alloca ptr, align 8
  %15 = alloca ptr, align 8
  %16 = alloca %struct._c_osd_op, align 8
  %17 = alloca i64, align 8
  %18 = alloca i64, align 8
  %19 = alloca i64, align 8
  %20 = alloca i64, align 8
  store ptr %0, ptr %7, align 8
  store i32 %1, ptr %8, align 4
  store ptr %2, ptr %9, align 8
  store ptr %3, ptr %10, align 8
  store i32 %4, ptr %11, align 4
  store ptr %5, ptr %12, align 8
  call void @llvm.lifetime.start.p0(i64 8, ptr %13) #14
  call void @llvm.lifetime.start.p0(i64 8, ptr %14) #14
  call void @llvm.lifetime.start.p0(i64 8, ptr %15) #14
  call void @llvm.lifetime.start.p0(i64 24, ptr %16) #14
  call void @llvm.lifetime.start.p0(i64 8, ptr %17) #14
  call void @llvm.lifetime.start.p0(i64 8, ptr %18) #14
  call void @llvm.lifetime.start.p0(i64 8, ptr %19) #14
  call void @llvm.lifetime.start.p0(i64 8, ptr %20) #14
  %21 = load ptr, ptr %10, align 8
  %22 = load i32, ptr %11, align 4
  %23 = call zeroext i16 @tvb_get_letohs(ptr noundef %21, i32 noundef %22)
  %24 = zext i16 %23 to i32
  %25 = getelementptr inbounds nuw %struct._c_osd_op, ptr %16, i32 0, i32 0
  store i32 %24, ptr %25, align 8
  %26 = load ptr, ptr %7, align 8
  %27 = load i32, ptr %8, align 4
  %28 = load ptr, ptr %10, align 8
  %29 = load i32, ptr %11, align 4
  %30 = call ptr @proto_tree_add_item(ptr noundef %26, i32 noundef %27, ptr noundef %28, i32 noundef %29, i32 noundef -1, i32 noundef 0)
  store ptr %30, ptr %13, align 8
  %31 = load ptr, ptr %13, align 8
  %32 = load i32, ptr @ett_osd_op, align 4
  %33 = call ptr @proto_item_add_subtree(ptr noundef %31, i32 noundef %32)
  store ptr %33, ptr %15, align 8
  %34 = getelementptr inbounds nuw %struct._c_osd_op, ptr %16, i32 0, i32 0
  %35 = load i32, ptr %34, align 8
  %36 = call ptr @c_osd_optype_string(i32 noundef %35)
  %37 = getelementptr inbounds nuw %struct._c_osd_op, ptr %16, i32 0, i32 1
  store ptr %36, ptr %37, align 8
  %38 = load ptr, ptr %13, align 8
  %39 = getelementptr inbounds nuw %struct._c_osd_op, ptr %16, i32 0, i32 1
  %40 = load ptr, ptr %39, align 8
  call void (ptr, ptr, ...) @proto_item_append_text(ptr noundef %38, ptr noundef @.str.1662, ptr noundef %40)
  %41 = load ptr, ptr %15, align 8
  %42 = load i32, ptr @hf_osd_op_type, align 4
  %43 = load ptr, ptr %10, align 8
  %44 = load i32, ptr %11, align 4
  %45 = call ptr @proto_tree_add_item(ptr noundef %41, i32 noundef %42, ptr noundef %43, i32 noundef %44, i32 noundef 2, i32 noundef -2147483648)
  %46 = load i32, ptr %11, align 4
  %47 = add i32 %46, 2
  store i32 %47, ptr %11, align 4
  %48 = load ptr, ptr %15, align 8
  %49 = load ptr, ptr %10, align 8
  %50 = load i32, ptr %11, align 4
  %51 = load ptr, ptr %12, align 8
  %52 = call i32 @c_dissect_osd_flags(ptr noundef %48, ptr noundef %49, i32 noundef %50, ptr noundef %51)
  store i32 %52, ptr %11, align 4
  %53 = getelementptr inbounds nuw %struct._c_osd_op, ptr %16, i32 0, i32 0
  %54 = load i32, ptr %53, align 8
  switch i32 %54, label %104 [
    i32 8705, label %55
    i32 8706, label %55
    i32 8708, label %55
    i32 8707, label %55
    i32 8709, label %55
    i32 4609, label %55
    i32 4610, label %55
  ]

55:                                               ; preds = %6, %6, %6, %6, %6, %6, %6
  %56 = load ptr, ptr %10, align 8
  %57 = load i32, ptr %11, align 4
  %58 = call i64 @tvb_get_letoh64(ptr noundef %56, i32 noundef %57)
  store i64 %58, ptr %17, align 8
  %59 = load ptr, ptr %15, align 8
  %60 = load i32, ptr @hf_osd_op_extent_off, align 4
  %61 = load ptr, ptr %10, align 8
  %62 = load i32, ptr %11, align 4
  %63 = call ptr @proto_tree_add_item(ptr noundef %59, i32 noundef %60, ptr noundef %61, i32 noundef %62, i32 noundef 8, i32 noundef -2147483648)
  %64 = load ptr, ptr %10, align 8
  %65 = load i32, ptr %11, align 4
  %66 = add i32 %65, 8
  %67 = call i64 @tvb_get_letoh64(ptr noundef %64, i32 noundef %66)
  store i64 %67, ptr %18, align 8
  %68 = load ptr, ptr %15, align 8
  %69 = load i32, ptr @hf_osd_op_extent_size, align 4
  %70 = load ptr, ptr %10, align 8
  %71 = load i32, ptr %11, align 4
  %72 = add i32 %71, 8
  %73 = call ptr @proto_tree_add_item(ptr noundef %68, i32 noundef %69, ptr noundef %70, i32 noundef %72, i32 noundef 8, i32 noundef -2147483648)
  %74 = load ptr, ptr %10, align 8
  %75 = load i32, ptr %11, align 4
  %76 = add i32 %75, 16
  %77 = call i64 @tvb_get_letoh64(ptr noundef %74, i32 noundef %76)
  store i64 %77, ptr %19, align 8
  %78 = load ptr, ptr %15, align 8
  %79 = load i32, ptr @hf_osd_op_extent_trunc_size, align 4
  %80 = load ptr, ptr %10, align 8
  %81 = load i32, ptr %11, align 4
  %82 = add i32 %81, 16
  %83 = call ptr @proto_tree_add_item(ptr noundef %78, i32 noundef %79, ptr noundef %80, i32 noundef %82, i32 noundef 8, i32 noundef -2147483648)
  %84 = load ptr, ptr %10, align 8
  %85 = load i32, ptr %11, align 4
  %86 = add i32 %85, 24
  %87 = call i32 @tvb_get_letohl(ptr noundef %84, i32 noundef %86)
  %88 = zext i32 %87 to i64
  store i64 %88, ptr %20, align 8
  %89 = load ptr, ptr %15, align 8
  %90 = load i32, ptr @hf_osd_op_extent_trunc_seq, align 4
  %91 = load ptr, ptr %10, align 8
  %92 = load i32, ptr %11, align 4
  %93 = add i32 %92, 24
  %94 = call ptr @proto_tree_add_item(ptr noundef %89, i32 noundef %90, ptr noundef %91, i32 noundef %93, i32 noundef 4, i32 noundef -2147483648)
  %95 = load ptr, ptr %13, align 8
  %96 = load i64, ptr %17, align 8
  %97 = load i64, ptr %18, align 8
  call void (ptr, ptr, ...) @proto_item_append_text(ptr noundef %95, ptr noundef @.str.1672, i64 noundef %96, i64 noundef %97)
  %98 = load i64, ptr %20, align 8
  %99 = icmp ne i64 %98, 0
  br i1 %99, label %100, label %103

100:                                              ; preds = %55
  %101 = load ptr, ptr %13, align 8
  %102 = load i64, ptr %19, align 8
  call void (ptr, ptr, ...) @proto_item_append_text(ptr noundef %101, ptr noundef @.str.1673, i64 noundef %102)
  br label %103

103:                                              ; preds = %100, %55
  br label %115

104:                                              ; preds = %6
  %105 = load ptr, ptr %15, align 8
  %106 = load i32, ptr @hf_osd_op_data, align 4
  %107 = load ptr, ptr %10, align 8
  %108 = load i32, ptr %11, align 4
  %109 = call ptr @proto_tree_add_item(ptr noundef %105, i32 noundef %106, ptr noundef %107, i32 noundef %108, i32 noundef 28, i32 noundef 0)
  store ptr %109, ptr %14, align 8
  %110 = load ptr, ptr %12, align 8
  %111 = getelementptr inbounds nuw %struct._c_pkt_data, ptr %110, i32 0, i32 5
  %112 = load ptr, ptr %111, align 8
  %113 = load ptr, ptr %14, align 8
  %114 = call ptr @expert_add_info(ptr noundef %112, ptr noundef %113, ptr noundef @ei_union_unknown)
  br label %115

115:                                              ; preds = %104, %103
  %116 = load i32, ptr %11, align 4
  %117 = add i32 %116, 28
  store i32 %117, ptr %11, align 4
  %118 = load ptr, ptr %10, align 8
  %119 = load i32, ptr %11, align 4
  %120 = call i32 @tvb_get_letohl(ptr noundef %118, i32 noundef %119)
  %121 = getelementptr inbounds nuw %struct._c_osd_op, ptr %16, i32 0, i32 2
  store i32 %120, ptr %121, align 8
  %122 = load ptr, ptr %13, align 8
  %123 = getelementptr inbounds nuw %struct._c_osd_op, ptr %16, i32 0, i32 2
  %124 = load i32, ptr %123, align 8
  call void (ptr, ptr, ...) @proto_item_append_text(ptr noundef %122, ptr noundef @.str.1674, i32 noundef %124)
  %125 = load ptr, ptr %15, align 8
  %126 = load i32, ptr @hf_osd_op_payload_size, align 4
  %127 = load ptr, ptr %10, align 8
  %128 = load i32, ptr %11, align 4
  %129 = call ptr @proto_tree_add_item(ptr noundef %125, i32 noundef %126, ptr noundef %127, i32 noundef %128, i32 noundef 4, i32 noundef -2147483648)
  %130 = load i32, ptr %11, align 4
  %131 = add i32 %130, 4
  store i32 %131, ptr %11, align 4
  %132 = load ptr, ptr %13, align 8
  %133 = load ptr, ptr %10, align 8
  %134 = load i32, ptr %11, align 4
  call void @proto_item_set_end(ptr noundef %132, ptr noundef %133, i32 noundef %134)
  %135 = load ptr, ptr %9, align 8
  %136 = icmp ne ptr %135, null
  br i1 %136, label %137, label %139

137:                                              ; preds = %115
  %138 = load ptr, ptr %9, align 8
  call void @llvm.memcpy.p0.p0.i64(ptr align 8 %138, ptr align 8 %16, i64 24, i1 false)
  br label %139

139:                                              ; preds = %137, %115
  %140 = load i32, ptr %11, align 4
  call void @llvm.lifetime.end.p0(i64 8, ptr %20) #14
  call void @llvm.lifetime.end.p0(i64 8, ptr %19) #14
  call void @llvm.lifetime.end.p0(i64 8, ptr %18) #14
  call void @llvm.lifetime.end.p0(i64 8, ptr %17) #14
  call void @llvm.lifetime.end.p0(i64 24, ptr %16) #14
  call void @llvm.lifetime.end.p0(i64 8, ptr %15) #14
  call void @llvm.lifetime.end.p0(i64 8, ptr %14) #14
  call void @llvm.lifetime.end.p0(i64 8, ptr %13) #14
  ret i32 %140
}