; Function Attrs: null_pointer_is_valid sspstrong uwtable
define internal fastcc noundef i32 @c_dissect_osd_op(ptr noundef %0, i32 noundef %1, ptr noundef writeonly captures(address_is_null) %2, ptr noundef %3, i32 noundef %4, ptr noundef readonly captures(none) %5) unnamed_addr #0 {
  %7 = tail call zeroext i16 @tvb_get_letohs(ptr noundef %3, i32 noundef %4)
  %8 = zext i16 %7 to i32
  %9 = tail call ptr @proto_tree_add_item(ptr noundef %0, i32 noundef %1, ptr noundef %3, i32 noundef %4, i32 noundef -1, i32 noundef 0)
  %10 = load i32, ptr @ett_osd_op, align 4
  %11 = tail call ptr @proto_item_add_subtree(ptr noundef %9, i32 noundef %10)
  %12 = tail call ptr @val_to_str_ext(i32 noundef range(i32 0, 65536) %8, ptr noundef nonnull @c_osd_optype_strings_ext, ptr noundef nonnull @.str.1616)
  tail call void (ptr, ptr, ...) @proto_item_append_text(ptr noundef %9, ptr noundef nonnull @.str.1662, ptr noundef %12)
  %13 = load i32, ptr @hf_osd_op_type, align 4
  %14 = tail call ptr @proto_tree_add_item(ptr noundef %11, i32 noundef %13, ptr noundef %3, i32 noundef %4, i32 noundef 2, i32 noundef -2147483648)
  %15 = add i32 %4, 2
  %16 = load i32, ptr @hf_osd_flags, align 4
  %17 = tail call ptr @proto_tree_add_bitmask(ptr noundef %11, ptr noundef %3, i32 noundef %15, i32 noundef %16, i32 noundef %16, ptr noundef nonnull @c_dissect_osd_flags.flags, i32 noundef -2147483648)
  %18 = add i32 %4, 6
  switch i16 %7, label %36 [
    i16 8705, label %19
    i16 8706, label %19
    i16 8708, label %19
    i16 8707, label %19
    i16 8709, label %19
    i16 4609, label %19
    i16 4610, label %19
  ]

19:                                               ; preds = %6, %6, %6, %6, %6, %6, %6
  %20 = tail call i64 @tvb_get_letoh64(ptr noundef %3, i32 noundef %18)
  %21 = load i32, ptr @hf_osd_op_extent_off, align 4
  %22 = tail call ptr @proto_tree_add_item(ptr noundef %11, i32 noundef %21, ptr noundef %3, i32 noundef %18, i32 noundef 8, i32 noundef -2147483648)
  %23 = add i32 %4, 14
  %24 = tail call i64 @tvb_get_letoh64(ptr noundef %3, i32 noundef %23)
  %25 = load i32, ptr @hf_osd_op_extent_size, align 4
  %26 = tail call ptr @proto_tree_add_item(ptr noundef %11, i32 noundef %25, ptr noundef %3, i32 noundef %23, i32 noundef 8, i32 noundef -2147483648)
  %27 = add i32 %4, 22
  %28 = tail call i64 @tvb_get_letoh64(ptr noundef %3, i32 noundef %27)
  %29 = load i32, ptr @hf_osd_op_extent_trunc_size, align 4
  %30 = tail call ptr @proto_tree_add_item(ptr noundef %11, i32 noundef %29, ptr noundef %3, i32 noundef %27, i32 noundef 8, i32 noundef -2147483648)
  %31 = add i32 %4, 30
  %32 = tail call i32 @tvb_get_letohl(ptr noundef %3, i32 noundef %31)
  %33 = load i32, ptr @hf_osd_op_extent_trunc_seq, align 4
  %34 = tail call ptr @proto_tree_add_item(ptr noundef %11, i32 noundef %33, ptr noundef %3, i32 noundef %31, i32 noundef 4, i32 noundef -2147483648)
  tail call void (ptr, ptr, ...) @proto_item_append_text(ptr noundef %9, ptr noundef nonnull @.str.1672, i64 noundef %20, i64 noundef %24)
  %.not = icmp eq i32 %32, 0
  br i1 %.not, label %42, label %35

35:                                               ; preds = %19
  tail call void (ptr, ptr, ...) @proto_item_append_text(ptr noundef %9, ptr noundef nonnull @.str.1673, i64 noundef %28)
  br label %42

36:                                               ; preds = %6
  %37 = load i32, ptr @hf_osd_op_data, align 4
  %38 = tail call ptr @proto_tree_add_item(ptr noundef %11, i32 noundef %37, ptr noundef %3, i32 noundef %18, i32 noundef 28, i32 noundef 0)
  %39 = getelementptr inbounds nuw i8, ptr %5, i64 40
  %40 = load ptr, ptr %39, align 8
  %41 = tail call ptr @expert_add_info(ptr noundef %40, ptr noundef %38, ptr noundef nonnull @ei_union_unknown)
  br label %42

42:                                               ; preds = %19, %35, %36
  %43 = add i32 %4, 34
  %44 = tail call i32 @tvb_get_letohl(ptr noundef %3, i32 noundef %43)
  tail call void (ptr, ptr, ...) @proto_item_append_text(ptr noundef %9, ptr noundef nonnull @.str.1674, i32 noundef %44)
  %45 = load i32, ptr @hf_osd_op_payload_size, align 4
  %46 = tail call ptr @proto_tree_add_item(ptr noundef %11, i32 noundef %45, ptr noundef %3, i32 noundef %43, i32 noundef 4, i32 noundef -2147483648)
  %47 = add i32 %4, 38
  tail call void @proto_item_set_end(ptr noundef %9, ptr noundef %3, i32 noundef %47)
  %.not62 = icmp eq ptr %2, null
  br i1 %.not62, label %49, label %48

48:                                               ; preds = %42
  store i32 %8, ptr %2, align 8
  %.sroa.65.0..sroa_idx = getelementptr inbounds nuw i8, ptr %2, i64 8
  store ptr %12, ptr %.sroa.65.0..sroa_idx, align 8
  %.sroa.8.0..sroa_idx = getelementptr inbounds nuw i8, ptr %2, i64 16
  store i32 %44, ptr %.sroa.8.0..sroa_idx, align 8
  br label %49

49:                                               ; preds = %48, %42
  ret i32 %47
}